; Function Attrs: mustprogress uwtable
define noundef zeroext i1 @_ZN2cv5flann5Index4loadERKNS_11_InputArrayERKNSt7__cxx1112basic_stringIcSt11char_traitsIcESaIcEEE(ptr noundef nonnull align 8 dereferenceable(128) %0, ptr noundef nonnull align 8 dereferenceable(24) %1, ptr noundef nonnull readonly align 8 captures(none) dereferenceable(32) %2) unnamed_addr #7 align 2 personality ptr @__gxx_personality_v0 {
  %4 = alloca %"class.cv::Mat", align 8
  %5 = alloca %"class.cv::Mat", align 8
  %6 = alloca %"class.cv::Mat", align 8
  %7 = load ptr, ptr %0, align 8, !tbaa !35
  %8 = getelementptr inbounds nuw i8, ptr %7, i64 56
  %9 = load ptr, ptr %8, align 8
  tail call void %9(ptr noundef nonnull align 8 dereferenceable(128) %0)
  call void @llvm.lifetime.start.p0(i64 96, ptr nonnull %4) #34
  call void @llvm.lifetime.start.p0(i64 96, ptr nonnull %5) #34
  %10 = tail call noundef i32 @_ZNK2cv11_InputArray4kindEv(ptr noundef nonnull align 8 dereferenceable(24) %1), !noalias !125
  %11 = icmp eq i32 %10, 65536
  br i1 %11, label %12, label %15

12:                                               ; preds = %3
  %13 = getelementptr inbounds nuw i8, ptr %1, i64 8
  %14 = load ptr, ptr %13, align 8, !tbaa !87, !noalias !125
  call void @_ZN2cv3MatC1ERKS0_(ptr noundef nonnull align 8 dereferenceable(96) %5, ptr noundef nonnull align 8 dereferenceable(96) %14)
  br label %_ZNK2cv11_InputArray6getMatEi.exit

15:                                               ; preds = %3
  call void @_ZNK2cv11_InputArray7getMat_Ei(ptr dead_on_unwind nonnull writable sret(%"class.cv::Mat") align 8 %5, ptr noundef nonnull align 8 dereferenceable(24) %1, i32 noundef -1)
  br label %_ZNK2cv11_InputArray6getMatEi.exit

_ZNK2cv11_InputArray6getMatEi.exit:               ; preds = %12, %15
  invoke void @_ZNK2cv3Mat5cloneEv(ptr dead_on_unwind nonnull writable sret(%"class.cv::Mat") align 8 %4, ptr noundef nonnull align 8 dereferenceable(96) %5)
          to label %16 unwind label %22

16:                                               ; preds = %_ZNK2cv11_InputArray6getMatEi.exit
  %17 = getelementptr inbounds nuw i8, ptr %0, i64 32
  %18 = invoke noundef nonnull align 8 dereferenceable(96) ptr @_ZN2cv3MataSEOS0_(ptr noundef nonnull align 8 dereferenceable(96) %17, ptr noundef nonnull align 8 dereferenceable(96) %4)
          to label %19 unwind label %24

19:                                               ; preds = %16
  call void @_ZN2cv3MatD1Ev(ptr noundef nonnull align 8 dereferenceable(96) %4) #34
  call void @_ZN2cv3MatD1Ev(ptr noundef nonnull align 8 dereferenceable(96) %5) #34
  call void @llvm.lifetime.end.p0(i64 96, ptr nonnull %5) #34
  call void @llvm.lifetime.end.p0(i64 96, ptr nonnull %4) #34
  call void @llvm.lifetime.start.p0(i64 96, ptr nonnull %6) #34
  call void @_ZN2cv3MatC1ERKS0_(ptr noundef nonnull align 8 dereferenceable(96) %6, ptr noundef nonnull align 8 dereferenceable(96) %17)
  %20 = invoke noundef zeroext i1 @_ZN2cv5flann5Index5load_ERKNSt7__cxx1112basic_stringIcSt11char_traitsIcESaIcEEE(ptr noundef nonnull align 8 dereferenceable(128) %0, ptr noundef nonnull align 8 dereferenceable(32) %2)
          to label %21 unwind label %27

21:                                               ; preds = %19
  call void @_ZN2cv3MatD1Ev(ptr noundef nonnull align 8 dereferenceable(96) %6) #34
  call void @llvm.lifetime.end.p0(i64 96, ptr nonnull %6) #34
  ret i1 %20

22:                                               ; preds = %_ZNK2cv11_InputArray6getMatEi.exit
  %23 = landingpad { ptr, i32 }
          cleanup
  br label %26

24:                                               ; preds = %16
  %25 = landingpad { ptr, i32 }
          cleanup
  call void @_ZN2cv3MatD1Ev(ptr noundef nonnull align 8 dereferenceable(96) %4) #34
  br label %26

26:                                               ; preds = %24, %22
  %.pn = phi { ptr, i32 } [ %25, %24 ], [ %23, %22 ]
  call void @_ZN2cv3MatD1Ev(ptr noundef nonnull align 8 dereferenceable(96) %5) #34
  call void @llvm.lifetime.end.p0(i64 96, ptr nonnull %5) #34
  call void @llvm.lifetime.end.p0(i64 96, ptr nonnull %4) #34
  br label %29

27:                                               ; preds = %19
  %28 = landingpad { ptr, i32 }
          cleanup
  call void @_ZN2cv3MatD1Ev(ptr noundef nonnull align 8 dereferenceable(96) %6) #34
  call void @llvm.lifetime.end.p0(i64 96, ptr nonnull %6) #34
  br label %29

29:                                               ; preds = %27, %26
  %.pn7 = phi { ptr, i32 } [ %28, %27 ], [ %.pn, %26 ]
  resume { ptr, i32 } %.pn7
}